ccopy_reg
_reconstructor
p1
(ctensorflow.contrib.learn.python.learn.preprocessing.text
VocabularyProcessor
p2
c__builtin__
object
p3
NtRp4
(dp5
S'vocabulary_'
p6
g1
(ctensorflow.contrib.learn.python.learn.preprocessing.categorical_vocabulary
CategoricalVocabulary
p7
g3
NtRp8
(dp9
S'_freeze'
p10
I01
sS'_unknown_token'
p11
S'<UNK>'
p12
sS'_support_reverse'
p13
I01
sS'_freq'
p14
(dp15
S'a'
I9
sS'be'
p16
I16
sS'do'
p17
I7
sS'and'
p18
I6
sS'for'
p19
I7
sS'__eou__'
p20
I54
sS'that'
p21
I9
sS'i'
I15
sS'of'
p22
I6
sS','
I13
sS'.'
I11
sS'to'
p23
I15
sS'we'
p24
I7
sS'not'
p25
I8
sS'in'
p26
I7
sS'it'
p27
I11
sS'the'
p28
I20
sS':'
I6
sS'you'
p29
I13
sS'?'
I18
sS'__eot__'
p30
I31
ssS'_mapping'
p31
(dp32
g18
I20
sg17
I15
sg27
I11
sg26
I17
sg12
I0
sg19
I16
sS','
I8
sS'.'
I10
sg23
I7
sg29
I9
sS':'
I19
sS'?'
I4
sg16
I5
sg24
I18
sg21
I13
sg25
I14
sg30
I2
sS'a'
I12
sg20
I1
sS'i'
I6
sg22
I21
sg28
I3
ssS'_reverse_mapping'
p33
(lp34
g12
ag20
ag30
ag28
aS'?'
ag16
aS'i'
ag23
aS','
ag29
aS'.'
ag27
aS'a'
ag21
ag25
ag17
ag19
ag26
ag24
aS':'
ag18
ag22
asbsS'max_document_length'
p35
I160
sS'_tokenizer'
p36
c__main__
tokenizer_fn
p37
sS'min_frequency'
p38
I5
sb.